target datalayout = "e-m:e-p270:32:32-p271:32:32-p272:64:64-i64:64-i128:128-f80:128-n8:16:32:64-S128"
target triple = "x86_64-pc-linux-gnu"

%struct.__loadu_si128 = type { <2 x i64> }

; Function Attrs: alwaysinline nounwind uwtable
define internal <2 x i64> @_mm_set_epi8(i8 noundef signext %0, i8 noundef signext %1, i8 noundef signext %2, i8 noundef signext %3, i8 noundef signext %4, i8 noundef signext %5, i8 noundef signext %6, i8 noundef signext %7, i8 noundef signext %8, i8 noundef signext %9, i8 noundef signext %10, i8 noundef signext %11, i8 noundef signext %12, i8 noundef signext %13, i8 noundef signext %14, i8 noundef signext %15) #3 {
  %17 = alloca i8, align 1
  %18 = alloca i8, align 1
  %19 = alloca i8, align 1
  %20 = alloca i8, align 1
  %21 = alloca i8, align 1
  %22 = alloca i8, align 1
  %23 = alloca i8, align 1
  %24 = alloca i8, align 1
  %25 = alloca i8, align 1
  %26 = alloca i8, align 1
  %27 = alloca i8, align 1
  %28 = alloca i8, align 1
  %29 = alloca i8, align 1
  %30 = alloca i8, align 1
  %31 = alloca i8, align 1
  %32 = alloca i8, align 1
  %33 = alloca <16 x i8>, align 16
  store i8 %0, ptr %17, align 1, !tbaa !11
  store i8 %1, ptr %18, align 1, !tbaa !11
  store i8 %2, ptr %19, align 1, !tbaa !11
  store i8 %3, ptr %20, align 1, !tbaa !11
  store i8 %4, ptr %21, align 1, !tbaa !11
  store i8 %5, ptr %22, align 1, !tbaa !11
  store i8 %6, ptr %23, align 1, !tbaa !11
  store i8 %7, ptr %24, align 1, !tbaa !11
  store i8 %8, ptr %25, align 1, !tbaa !11
  store i8 %9, ptr %26, align 1, !tbaa !11
  store i8 %10, ptr %27, align 1, !tbaa !11
  store i8 %11, ptr %28, align 1, !tbaa !11
  store i8 %12, ptr %29, align 1, !tbaa !11
  store i8 %13, ptr %30, align 1, !tbaa !11
  store i8 %14, ptr %31, align 1, !tbaa !11
  store i8 %15, ptr %32, align 1, !tbaa !11
  %34 = load i8, ptr %32, align 1, !tbaa !11
  %35 = insertelement <16 x i8> poison, i8 %34, i32 0
  %36 = load i8, ptr %31, align 1, !tbaa !11
  %37 = insertelement <16 x i8> %35, i8 %36, i32 1
  %38 = load i8, ptr %30, align 1, !tbaa !11
  %39 = insertelement <16 x i8> %37, i8 %38, i32 2
  %40 = load i8, ptr %29, align 1, !tbaa !11
  %41 = insertelement <16 x i8> %39, i8 %40, i32 3
  %42 = load i8, ptr %28, align 1, !tbaa !11
  %43 = insertelement <16 x i8> %41, i8 %42, i32 4
  %44 = load i8, ptr %27, align 1, !tbaa !11
  %45 = insertelement <16 x i8> %43, i8 %44, i32 5
  %46 = load i8, ptr %26, align 1, !tbaa !11
  %47 = insertelement <16 x i8> %45, i8 %46, i32 6
  %48 = load i8, ptr %25, align 1, !tbaa !11
  %49 = insertelement <16 x i8> %47, i8 %48, i32 7
  %50 = load i8, ptr %24, align 1, !tbaa !11
  %51 = insertelement <16 x i8> %49, i8 %50, i32 8
  %52 = load i8, ptr %23, align 1, !tbaa !11
  %53 = insertelement <16 x i8> %51, i8 %52, i32 9
  %54 = load i8, ptr %22, align 1, !tbaa !11
  %55 = insertelement <16 x i8> %53, i8 %54, i32 10
  %56 = load i8, ptr %21, align 1, !tbaa !11
  %57 = insertelement <16 x i8> %55, i8 %56, i32 11
  %58 = load i8, ptr %20, align 1, !tbaa !11
  %59 = insertelement <16 x i8> %57, i8 %58, i32 12
  %60 = load i8, ptr %19, align 1, !tbaa !11
  %61 = insertelement <16 x i8> %59, i8 %60, i32 13
  %62 = load i8, ptr %18, align 1, !tbaa !11
  %63 = insertelement <16 x i8> %61, i8 %62, i32 14
  %64 = load i8, ptr %17, align 1, !tbaa !11
  %65 = insertelement <16 x i8> %63, i8 %64, i32 15
  store <16 x i8> %65, ptr %33, align 16, !tbaa !11
  %66 = load <16 x i8>, ptr %33, align 16, !tbaa !11
  %67 = bitcast <16 x i8> %66 to <2 x i64>
  ret <2 x i64> %67
}

; Function Attrs: alwaysinline nounwind uwtable
define internal <2 x i64> @_mm_set_epi32(i32 noundef %0, i32 noundef %1, i32 noundef %2, i32 noundef %3) #3 {
  %5 = alloca i32, align 4
  %6 = alloca i32, align 4
  %7 = alloca i32, align 4
  %8 = alloca i32, align 4
  %9 = alloca <4 x i32>, align 16
  store i32 %0, ptr %5, align 4, !tbaa !9
  store i32 %1, ptr %6, align 4, !tbaa !9
  store i32 %2, ptr %7, align 4, !tbaa !9
  store i32 %3, ptr %8, align 4, !tbaa !9
  %10 = load i32, ptr %8, align 4, !tbaa !9
  %11 = insertelement <4 x i32> poison, i32 %10, i32 0
  %12 = load i32, ptr %7, align 4, !tbaa !9
  %13 = insertelement <4 x i32> %11, i32 %12, i32 1
  %14 = load i32, ptr %6, align 4, !tbaa !9
  %15 = insertelement <4 x i32> %13, i32 %14, i32 2
  %16 = load i32, ptr %5, align 4, !tbaa !9
  %17 = insertelement <4 x i32> %15, i32 %16, i32 3
  store <4 x i32> %17, ptr %9, align 16, !tbaa !11
  %18 = load <4 x i32>, ptr %9, align 16, !tbaa !11
  %19 = bitcast <4 x i32> %18 to <2 x i64>
  ret <2 x i64> %19
}

; Function Attrs: alwaysinline nounwind uwtable
define internal i32 @_mm_movemask_epi8(<2 x i64> noundef %0) #3 {
  %2 = alloca <2 x i64>, align 16
  store <2 x i64> %0, ptr %2, align 16, !tbaa !11
  %3 = load <2 x i64>, ptr %2, align 16, !tbaa !11
  %4 = bitcast <2 x i64> %3 to <16 x i8>
  %5 = call i32 @llvm.x86.sse2.pmovmskb.128(<16 x i8> %4)
  ret i32 %5
}

; Function Attrs: alwaysinline nounwind uwtable
define internal <2 x i64> @_mm_cmpeq_epi8(<2 x i64> noundef %0, <2 x i64> noundef %1) #3 {
  %3 = alloca <2 x i64>, align 16
  %4 = alloca <2 x i64>, align 16
  store <2 x i64> %0, ptr %3, align 16, !tbaa !11
  store <2 x i64> %1, ptr %4, align 16, !tbaa !11
  %5 = load <2 x i64>, ptr %3, align 16, !tbaa !11
  %6 = bitcast <2 x i64> %5 to <16 x i8>
  %7 = load <2 x i64>, ptr %4, align 16, !tbaa !11
  %8 = bitcast <2 x i64> %7 to <16 x i8>
  %9 = icmp eq <16 x i8> %6, %8
  %10 = sext <16 x i1> %9 to <16 x i8>
  %11 = bitcast <16 x i8> %10 to <2 x i64>
  ret <2 x i64> %11
}

; Function Attrs: alwaysinline nounwind uwtable
define internal <2 x i64> @_mm_packus_epi16(<2 x i64> noundef %0, <2 x i64> noundef %1) #3 {
  %3 = alloca <2 x i64>, align 16
  %4 = alloca <2 x i64>, align 16
  store <2 x i64> %0, ptr %3, align 16, !tbaa !11
  store <2 x i64> %1, ptr %4, align 16, !tbaa !11
  %5 = load <2 x i64>, ptr %3, align 16, !tbaa !11
  %6 = bitcast <2 x i64> %5 to <8 x i16>
  %7 = load <2 x i64>, ptr %4, align 16, !tbaa !11
  %8 = bitcast <2 x i64> %7 to <8 x i16>
  %9 = call <16 x i8> @llvm.x86.sse2.packuswb.128(<8 x i16> %6, <8 x i16> %8)
  %10 = bitcast <16 x i8> %9 to <2 x i64>
  ret <2 x i64> %10
}

; Function Attrs: alwaysinline nounwind uwtable
define internal <2 x i64> @_mm_packs_epi32(<2 x i64> noundef %0, <2 x i64> noundef %1) #3 {
  %3 = alloca <2 x i64>, align 16
  %4 = alloca <2 x i64>, align 16
  store <2 x i64> %0, ptr %3, align 16, !tbaa !11
  store <2 x i64> %1, ptr %4, align 16, !tbaa !11
  %5 = load <2 x i64>, ptr %3, align 16, !tbaa !11
  %6 = bitcast <2 x i64> %5 to <4 x i32>
  %7 = load <2 x i64>, ptr %4, align 16, !tbaa !11
  %8 = bitcast <2 x i64> %7 to <4 x i32>
  %9 = call <8 x i16> @llvm.x86.sse2.packssdw.128(<4 x i32> %6, <4 x i32> %8)
  %10 = bitcast <8 x i16> %9 to <2 x i64>
  ret <2 x i64> %10
}

; Function Attrs: alwaysinline nounwind uwtable
define internal <2 x i64> @_mm_and_si128(<2 x i64> noundef %0, <2 x i64> noundef %1) #3 {
  %3 = alloca <2 x i64>, align 16
  %4 = alloca <2 x i64>, align 16
  store <2 x i64> %0, ptr %3, align 16, !tbaa !11
  store <2 x i64> %1, ptr %4, align 16, !tbaa !11
  %5 = load <2 x i64>, ptr %3, align 16, !tbaa !11
  %6 = load <2 x i64>, ptr %4, align 16, !tbaa !11
  %7 = and <2 x i64> %5, %6
  ret <2 x i64> %7
}

; Function Attrs: alwaysinline nounwind uwtable
define internal <2 x i64> @_mm_loadu_si128(ptr noundef %0) #3 {
  %2 = alloca ptr, align 8
  store ptr %0, ptr %2, align 8, !tbaa !3
  %3 = load ptr, ptr %2, align 8, !tbaa !3
  %4 = getelementptr inbounds nuw %struct.__loadu_si128, ptr %3, i32 0, i32 0
  %5 = load <2 x i64>, ptr %4, align 1, !tbaa !11
  ret <2 x i64> %5
}

; Function Attrs: alwaysinline nounwind uwtable
define internal <2 x i64> @_mm_set1_epi8(i8 noundef signext %0) #3 {
  %2 = alloca i8, align 1
  store i8 %0, ptr %2, align 1, !tbaa !11
  %3 = load i8, ptr %2, align 1, !tbaa !11
  %4 = load i8, ptr %2, align 1, !tbaa !11
  %5 = load i8, ptr %2, align 1, !tbaa !11
  %6 = load i8, ptr %2, align 1, !tbaa !11
  %7 = load i8, ptr %2, align 1, !tbaa !11
  %8 = load i8, ptr %2, align 1, !tbaa !11
  %9 = load i8, ptr %2, align 1, !tbaa !11
  %10 = load i8, ptr %2, align 1, !tbaa !11
  %11 = load i8, ptr %2, align 1, !tbaa !11
  %12 = load i8, ptr %2, align 1, !tbaa !11
  %13 = load i8, ptr %2, align 1, !tbaa !11
  %14 = load i8, ptr %2, align 1, !tbaa !11
  %15 = load i8, ptr %2, align 1, !tbaa !11
  %16 = load i8, ptr %2, align 1, !tbaa !11
  %17 = load i8, ptr %2, align 1, !tbaa !11
  %18 = load i8, ptr %2, align 1, !tbaa !11
  %19 = call <2 x i64> @_mm_set_epi8(i8 noundef signext %3, i8 noundef signext %4, i8 noundef signext %5, i8 noundef signext %6, i8 noundef signext %7, i8 noundef signext %8, i8 noundef signext %9, i8 noundef signext %10, i8 noundef signext %11, i8 noundef signext %12, i8 noundef signext %13, i8 noundef signext %14, i8 noundef signext %15, i8 noundef signext %16, i8 noundef signext %17, i8 noundef signext %18)
  ret <2 x i64> %19
}

; Function Attrs: alwaysinline nounwind uwtable
define internal <2 x i64> @_mm_set1_epi32(i32 noundef %0) #3 {
  %2 = alloca i32, align 4
  store i32 %0, ptr %2, align 4, !tbaa !9
  %3 = load i32, ptr %2, align 4, !tbaa !9
  %4 = load i32, ptr %2, align 4, !tbaa !9
  %5 = load i32, ptr %2, align 4, !tbaa !9
  %6 = load i32, ptr %2, align 4, !tbaa !9
  %7 = call <2 x i64> @_mm_set_epi32(i32 noundef %3, i32 noundef %4, i32 noundef %5, i32 noundef %6)
  ret <2 x i64> %7
}

; Function Attrs: nounwind uwtable
define internal i32 @HasAlpha32b_SSE2(ptr noundef %0, i32 noundef %1) #1 {
  %3 = alloca i32, align 4
  %4 = alloca ptr, align 8
  %5 = alloca i32, align 4
  %6 = alloca <2 x i64>, align 16
  %7 = alloca <2 x i64>, align 16
  %8 = alloca i32, align 4
  %9 = alloca <2 x i64>, align 16
  %10 = alloca <2 x i64>, align 16
  %11 = alloca <2 x i64>, align 16
  %12 = alloca <2 x i64>, align 16
  %13 = alloca <2 x i64>, align 16
  %14 = alloca <2 x i64>, align 16
  %15 = alloca <2 x i64>, align 16
  %16 = alloca <2 x i64>, align 16
  %17 = alloca <2 x i64>, align 16
  %18 = alloca <2 x i64>, align 16
  %19 = alloca <2 x i64>, align 16
  %20 = alloca <2 x i64>, align 16
  %21 = alloca i32, align 4
  %22 = alloca i32, align 4
  %23 = alloca <2 x i64>, align 16
  %24 = alloca <2 x i64>, align 16
  %25 = alloca <2 x i64>, align 16
  %26 = alloca <2 x i64>, align 16
  %27 = alloca <2 x i64>, align 16
  %28 = alloca <2 x i64>, align 16
  %29 = alloca <2 x i64>, align 16
  %30 = alloca i32, align 4
  store ptr %0, ptr %4, align 8, !tbaa !14
  store i32 %1, ptr %5, align 4, !tbaa !9
  call void @llvm.lifetime.start.p0(i64 16, ptr %6) #6
  %31 = call <2 x i64> @_mm_set1_epi32(i32 noundef 255)
  store <2 x i64> %31, ptr %6, align 16, !tbaa !11
  call void @llvm.lifetime.start.p0(i64 16, ptr %7) #6
  %32 = call <2 x i64> @_mm_set1_epi8(i8 noundef signext -1)
  store <2 x i64> %32, ptr %7, align 16, !tbaa !11
  call void @llvm.lifetime.start.p0(i64 4, ptr %8) #6
  store i32 0, ptr %8, align 4, !tbaa !9
  %33 = load i32, ptr %5, align 4, !tbaa !9
  %34 = mul nsw i32 %33, 4
  %35 = sub nsw i32 %34, 3
  store i32 %35, ptr %5, align 4, !tbaa !9
  br label %36

36:                                               ; preds = %99, %2
  %37 = load i32, ptr %8, align 4, !tbaa !9
  %38 = add nsw i32 %37, 64
  %39 = load i32, ptr %5, align 4, !tbaa !9
  %40 = icmp sle i32 %38, %39
  br i1 %40, label %41, label %102

41:                                               ; preds = %36
  call void @llvm.lifetime.start.p0(i64 16, ptr %9) #6
  %42 = load ptr, ptr %4, align 8, !tbaa !14
  %43 = load i32, ptr %8, align 4, !tbaa !9
  %44 = sext i32 %43 to i64
  %45 = getelementptr inbounds i8, ptr %42, i64 %44
  %46 = getelementptr inbounds i8, ptr %45, i64 0
  %47 = call <2 x i64> @_mm_loadu_si128(ptr noundef %46)
  store <2 x i64> %47, ptr %9, align 16, !tbaa !11
  call void @llvm.lifetime.start.p0(i64 16, ptr %10) #6
  %48 = load ptr, ptr %4, align 8, !tbaa !14
  %49 = load i32, ptr %8, align 4, !tbaa !9
  %50 = sext i32 %49 to i64
  %51 = getelementptr inbounds i8, ptr %48, i64 %50
  %52 = getelementptr inbounds i8, ptr %51, i64 16
  %53 = call <2 x i64> @_mm_loadu_si128(ptr noundef %52)
  store <2 x i64> %53, ptr %10, align 16, !tbaa !11
  call void @llvm.lifetime.start.p0(i64 16, ptr %11) #6
  %54 = load ptr, ptr %4, align 8, !tbaa !14
  %55 = load i32, ptr %8, align 4, !tbaa !9
  %56 = sext i32 %55 to i64
  %57 = getelementptr inbounds i8, ptr %54, i64 %56
  %58 = getelementptr inbounds i8, ptr %57, i64 32
  %59 = call <2 x i64> @_mm_loadu_si128(ptr noundef %58)
  store <2 x i64> %59, ptr %11, align 16, !tbaa !11
  call void @llvm.lifetime.start.p0(i64 16, ptr %12) #6
  %60 = load ptr, ptr %4, align 8, !tbaa !14
  %61 = load i32, ptr %8, align 4, !tbaa !9
  %62 = sext i32 %61 to i64
  %63 = getelementptr inbounds i8, ptr %60, i64 %62
  %64 = getelementptr inbounds i8, ptr %63, i64 48
  %65 = call <2 x i64> @_mm_loadu_si128(ptr noundef %64)
  store <2 x i64> %65, ptr %12, align 16, !tbaa !11
  call void @llvm.lifetime.start.p0(i64 16, ptr %13) #6
  %66 = load <2 x i64>, ptr %9, align 16, !tbaa !11
  %67 = load <2 x i64>, ptr %6, align 16, !tbaa !11
  %68 = call <2 x i64> @_mm_and_si128(<2 x i64> noundef %66, <2 x i64> noundef %67)
  store <2 x i64> %68, ptr %13, align 16, !tbaa !11
  call void @llvm.lifetime.start.p0(i64 16, ptr %14) #6
  %69 = load <2 x i64>, ptr %10, align 16, !tbaa !11
  %70 = load <2 x i64>, ptr %6, align 16, !tbaa !11
  %71 = call <2 x i64> @_mm_and_si128(<2 x i64> noundef %69, <2 x i64> noundef %70)
  store <2 x i64> %71, ptr %14, align 16, !tbaa !11
  call void @llvm.lifetime.start.p0(i64 16, ptr %15) #6
  %72 = load <2 x i64>, ptr %11, align 16, !tbaa !11
  %73 = load <2 x i64>, ptr %6, align 16, !tbaa !11
  %74 = call <2 x i64> @_mm_and_si128(<2 x i64> noundef %72, <2 x i64> noundef %73)
  store <2 x i64> %74, ptr %15, align 16, !tbaa !11
  call void @llvm.lifetime.start.p0(i64 16, ptr %16) #6
  %75 = load <2 x i64>, ptr %12, align 16, !tbaa !11
  %76 = load <2 x i64>, ptr %6, align 16, !tbaa !11
  %77 = call <2 x i64> @_mm_and_si128(<2 x i64> noundef %75, <2 x i64> noundef %76)
  store <2 x i64> %77, ptr %16, align 16, !tbaa !11
  call void @llvm.lifetime.start.p0(i64 16, ptr %17) #6
  %78 = load <2 x i64>, ptr %13, align 16, !tbaa !11
  %79 = load <2 x i64>, ptr %14, align 16, !tbaa !11
  %80 = call <2 x i64> @_mm_packs_epi32(<2 x i64> noundef %78, <2 x i64> noundef %79)
  store <2 x i64> %80, ptr %17, align 16, !tbaa !11
  call void @llvm.lifetime.start.p0(i64 16, ptr %18) #6
  %81 = load <2 x i64>, ptr %15, align 16, !tbaa !11
  %82 = load <2 x i64>, ptr %16, align 16, !tbaa !11
  %83 = call <2 x i64> @_mm_packs_epi32(<2 x i64> noundef %81, <2 x i64> noundef %82)
  store <2 x i64> %83, ptr %18, align 16, !tbaa !11
  call void @llvm.lifetime.start.p0(i64 16, ptr %19) #6
  %84 = load <2 x i64>, ptr %17, align 16, !tbaa !11
  %85 = load <2 x i64>, ptr %18, align 16, !tbaa !11
  %86 = call <2 x i64> @_mm_packus_epi16(<2 x i64> noundef %84, <2 x i64> noundef %85)
  store <2 x i64> %86, ptr %19, align 16, !tbaa !11
  call void @llvm.lifetime.start.p0(i64 16, ptr %20) #6
  %87 = load <2 x i64>, ptr %19, align 16, !tbaa !11
  %88 = load <2 x i64>, ptr %7, align 16, !tbaa !11
  %89 = call <2 x i64> @_mm_cmpeq_epi8(<2 x i64> noundef %87, <2 x i64> noundef %88)
  store <2 x i64> %89, ptr %20, align 16, !tbaa !11
  call void @llvm.lifetime.start.p0(i64 4, ptr %21) #6
  %90 = load <2 x i64>, ptr %20, align 16, !tbaa !11
  %91 = call i32 @_mm_movemask_epi8(<2 x i64> noundef %90)
  store i32 %91, ptr %21, align 4, !tbaa !9
  %92 = load i32, ptr %21, align 4, !tbaa !9
  %93 = icmp ne i32 %92, 65535
  br i1 %93, label %94, label %95

94:                                               ; preds = %41
  store i32 1, ptr %3, align 4
  store i32 1, ptr %22, align 4
  br label %96

95:                                               ; preds = %41
  store i32 0, ptr %22, align 4
  br label %96

96:                                               ; preds = %95, %94
  call void @llvm.lifetime.end.p0(i64 4, ptr %21) #6
  call void @llvm.lifetime.end.p0(i64 16, ptr %20) #6
  call void @llvm.lifetime.end.p0(i64 16, ptr %19) #6
  call void @llvm.lifetime.end.p0(i64 16, ptr %18) #6
  call void @llvm.lifetime.end.p0(i64 16, ptr %17) #6
  call void @llvm.lifetime.end.p0(i64 16, ptr %16) #6
  call void @llvm.lifetime.end.p0(i64 16, ptr %15) #6
  call void @llvm.lifetime.end.p0(i64 16, ptr %14) #6
  call void @llvm.lifetime.end.p0(i64 16, ptr %13) #6
  call void @llvm.lifetime.end.p0(i64 16, ptr %12) #6
  call void @llvm.lifetime.end.p0(i64 16, ptr %11) #6
  call void @llvm.lifetime.end.p0(i64 16, ptr %10) #6
  call void @llvm.lifetime.end.p0(i64 16, ptr %9) #6
  %97 = load i32, ptr %22, align 4
  switch i32 %97, label %167 [
    i32 0, label %98
  ]

98:                                               ; preds = %96
  br label %99

99:                                               ; preds = %98
  %100 = load i32, ptr %8, align 4, !tbaa !9
  %101 = add nsw i32 %100, 64
  store i32 %101, ptr %8, align 4, !tbaa !9
  br label %36, !llvm.loop !34

102:                                              ; preds = %36
  br label %103

103:                                              ; preds = %145, %102
  %104 = load i32, ptr %8, align 4, !tbaa !9
  %105 = add nsw i32 %104, 32
  %106 = load i32, ptr %5, align 4, !tbaa !9
  %107 = icmp sle i32 %105, %106
  br i1 %107, label %108, label %148

108:                                              ; preds = %103
  call void @llvm.lifetime.start.p0(i64 16, ptr %23) #6
  %109 = load ptr, ptr %4, align 8, !tbaa !14
  %110 = load i32, ptr %8, align 4, !tbaa !9
  %111 = sext i32 %110 to i64
  %112 = getelementptr inbounds i8, ptr %109, i64 %111
  %113 = getelementptr inbounds i8, ptr %112, i64 0
  %114 = call <2 x i64> @_mm_loadu_si128(ptr noundef %113)
  store <2 x i64> %114, ptr %23, align 16, !tbaa !11
  call void @llvm.lifetime.start.p0(i64 16, ptr %24) #6
  %115 = load ptr, ptr %4, align 8, !tbaa !14
  %116 = load i32, ptr %8, align 4, !tbaa !9
  %117 = sext i32 %116 to i64
  %118 = getelementptr inbounds i8, ptr %115, i64 %117
  %119 = getelementptr inbounds i8, ptr %118, i64 16
  %120 = call <2 x i64> @_mm_loadu_si128(ptr noundef %119)
  store <2 x i64> %120, ptr %24, align 16, !tbaa !11
  call void @llvm.lifetime.start.p0(i64 16, ptr %25) #6
  %121 = load <2 x i64>, ptr %23, align 16, !tbaa !11
  %122 = load <2 x i64>, ptr %6, align 16, !tbaa !11
  %123 = call <2 x i64> @_mm_and_si128(<2 x i64> noundef %121, <2 x i64> noundef %122)
  store <2 x i64> %123, ptr %25, align 16, !tbaa !11
  call void @llvm.lifetime.start.p0(i64 16, ptr %26) #6
  %124 = load <2 x i64>, ptr %24, align 16, !tbaa !11
  %125 = load <2 x i64>, ptr %6, align 16, !tbaa !11
  %126 = call <2 x i64> @_mm_and_si128(<2 x i64> noundef %124, <2 x i64> noundef %125)
  store <2 x i64> %126, ptr %26, align 16, !tbaa !11
  call void @llvm.lifetime.start.p0(i64 16, ptr %27) #6
  %127 = load <2 x i64>, ptr %25, align 16, !tbaa !11
  %128 = load <2 x i64>, ptr %26, align 16, !tbaa !11
  %129 = call <2 x i64> @_mm_packs_epi32(<2 x i64> noundef %127, <2 x i64> noundef %128)
  store <2 x i64> %129, ptr %27, align 16, !tbaa !11
  call void @llvm.lifetime.start.p0(i64 16, ptr %28) #6
  %130 = load <2 x i64>, ptr %27, align 16, !tbaa !11
  %131 = load <2 x i64>, ptr %27, align 16, !tbaa !11
  %132 = call <2 x i64> @_mm_packus_epi16(<2 x i64> noundef %130, <2 x i64> noundef %131)
  store <2 x i64> %132, ptr %28, align 16, !tbaa !11
  call void @llvm.lifetime.start.p0(i64 16, ptr %29) #6
  %133 = load <2 x i64>, ptr %28, align 16, !tbaa !11
  %134 = load <2 x i64>, ptr %7, align 16, !tbaa !11
  %135 = call <2 x i64> @_mm_cmpeq_epi8(<2 x i64> noundef %133, <2 x i64> noundef %134)
  store <2 x i64> %135, ptr %29, align 16, !tbaa !11
  call void @llvm.lifetime.start.p0(i64 4, ptr %30) #6
  %136 = load <2 x i64>, ptr %29, align 16, !tbaa !11
  %137 = call i32 @_mm_movemask_epi8(<2 x i64> noundef %136)
  store i32 %137, ptr %30, align 4, !tbaa !9
  %138 = load i32, ptr %30, align 4, !tbaa !9
  %139 = icmp ne i32 %138, 65535
  br i1 %139, label %140, label %141

140:                                              ; preds = %108
  store i32 1, ptr %3, align 4
  store i32 1, ptr %22, align 4
  br label %142

141:                                              ; preds = %108
  store i32 0, ptr %22, align 4
  br label %142

142:                                              ; preds = %141, %140
  call void @llvm.lifetime.end.p0(i64 4, ptr %30) #6
  call void @llvm.lifetime.end.p0(i64 16, ptr %29) #6
  call void @llvm.lifetime.end.p0(i64 16, ptr %28) #6
  call void @llvm.lifetime.end.p0(i64 16, ptr %27) #6
  call void @llvm.lifetime.end.p0(i64 16, ptr %26) #6
  call void @llvm.lifetime.end.p0(i64 16, ptr %25) #6
  call void @llvm.lifetime.end.p0(i64 16, ptr %24) #6
  call void @llvm.lifetime.end.p0(i64 16, ptr %23) #6
  %143 = load i32, ptr %22, align 4
  switch i32 %143, label %167 [
    i32 0, label %144
  ]

144:                                              ; preds = %142
  br label %145

145:                                              ; preds = %144
  %146 = load i32, ptr %8, align 4, !tbaa !9
  %147 = add nsw i32 %146, 32
  store i32 %147, ptr %8, align 4, !tbaa !9
  br label %103, !llvm.loop !35

148:                                              ; preds = %103
  br label %149

149:                                              ; preds = %163, %148
  %150 = load i32, ptr %8, align 4, !tbaa !9
  %151 = load i32, ptr %5, align 4, !tbaa !9
  %152 = icmp sle i32 %150, %151
  br i1 %152, label %153, label %166

153:                                              ; preds = %149
  %154 = load ptr, ptr %4, align 8, !tbaa !14
  %155 = load i32, ptr %8, align 4, !tbaa !9
  %156 = sext i32 %155 to i64
  %157 = getelementptr inbounds i8, ptr %154, i64 %156
  %158 = load i8, ptr %157, align 1, !tbaa !11
  %159 = zext i8 %158 to i32
  %160 = icmp ne i32 %159, 255
  br i1 %160, label %161, label %162

161:                                              ; preds = %153
  store i32 1, ptr %3, align 4
  store i32 1, ptr %22, align 4
  br label %167

162:                                              ; preds = %153
  br label %163

163:                                              ; preds = %162
  %164 = load i32, ptr %8, align 4, !tbaa !9
  %165 = add nsw i32 %164, 4
  store i32 %165, ptr %8, align 4, !tbaa !9
  br label %149, !llvm.loop !36

166:                                              ; preds = %149
  store i32 0, ptr %3, align 4
  store i32 1, ptr %22, align 4
  br label %167

167:                                              ; preds = %166, %161, %142, %96
  call void @llvm.lifetime.end.p0(i64 4, ptr %8) #6
  call void @llvm.lifetime.end.p0(i64 16, ptr %7) #6
  call void @llvm.lifetime.end.p0(i64 16, ptr %6) #6
  %168 = load i32, ptr %3, align 4
  ret i32 %168
}