; Function Attrs: nofree norecurse nosync nounwind memory(argmem: read) uwtable
define internal range(i32 0, 2) i32 @HasAlpha32b_SSE2(ptr noundef readonly captures(none) %0, i32 noundef %1) #3 {
  %3 = shl nsw i32 %1, 2
  %4 = add nsw i32 %3, -3
  %5 = sext i32 %4 to i64
  br label %6

6:                                                ; preds = %7, %2
  %indvars.iv = phi i64 [ %indvars.iv.next, %7 ], [ 0, %2 ]
  %indvars.iv.next = add nuw nsw i64 %indvars.iv, 64
  %.not = icmp sgt i64 %indvars.iv.next, %5
  br i1 %.not, label %.preheader69, label %7

7:                                                ; preds = %6
  %8 = getelementptr inbounds nuw i8, ptr %0, i64 %indvars.iv
  %9 = load <4 x i32>, ptr %8, align 1, !tbaa !7
  %10 = getelementptr inbounds nuw i8, ptr %8, i64 16
  %11 = load <4 x i32>, ptr %10, align 1, !tbaa !7
  %12 = getelementptr inbounds nuw i8, ptr %8, i64 32
  %13 = load <4 x i32>, ptr %12, align 1, !tbaa !7
  %14 = getelementptr inbounds nuw i8, ptr %8, i64 48
  %15 = load <4 x i32>, ptr %14, align 1, !tbaa !7
  %16 = and <4 x i32> %9, splat (i32 255)
  %17 = and <4 x i32> %11, splat (i32 255)
  %18 = tail call <8 x i16> @llvm.x86.sse2.packssdw.128(<4 x i32> %16, <4 x i32> %17)
  %19 = and <4 x i32> %13, splat (i32 255)
  %20 = and <4 x i32> %15, splat (i32 255)
  %21 = tail call <8 x i16> @llvm.x86.sse2.packssdw.128(<4 x i32> %19, <4 x i32> %20)
  %22 = tail call <16 x i8> @llvm.x86.sse2.packuswb.128(<8 x i16> %18, <8 x i16> %21)
  %23 = icmp ne <16 x i8> %22, splat (i8 -1)
  %24 = bitcast <16 x i1> %23 to i16
  %.not68 = icmp eq i16 %24, 0
  br i1 %.not68, label %6, label %.loopexit, !llvm.loop !30

.preheader69:                                     ; preds = %6, %26
  %indvars.iv84 = phi i64 [ %indvars.iv.next85, %26 ], [ %indvars.iv, %6 ]
  %indvars.iv.next85 = add nuw nsw i64 %indvars.iv84, 32
  %.not64 = icmp sgt i64 %indvars.iv.next85, %5
  br i1 %.not64, label %.preheader, label %26

.preheader:                                       ; preds = %.preheader69
  %25 = trunc nuw nsw i64 %indvars.iv84 to i32
  %.not6574 = icmp slt i32 %4, %25
  br i1 %.not6574, label %.loopexit, label %.lr.ph

26:                                               ; preds = %.preheader69
  %27 = getelementptr inbounds nuw i8, ptr %0, i64 %indvars.iv84
  %28 = load <4 x i32>, ptr %27, align 1, !tbaa !7
  %29 = getelementptr inbounds nuw i8, ptr %27, i64 16
  %30 = load <4 x i32>, ptr %29, align 1, !tbaa !7
  %31 = and <4 x i32> %28, splat (i32 255)
  %32 = and <4 x i32> %30, splat (i32 255)
  %33 = tail call <8 x i16> @llvm.x86.sse2.packssdw.128(<4 x i32> %31, <4 x i32> %32)
  %34 = tail call <16 x i8> @llvm.x86.sse2.packuswb.128(<8 x i16> %33, <8 x i16> %33)
  %35 = icmp ne <16 x i8> %34, splat (i8 -1)
  %36 = bitcast <16 x i1> %35 to i16
  %.not67 = icmp eq i16 %36, 0
  br i1 %.not67, label %.preheader69, label %.loopexit, !llvm.loop !31

37:                                               ; preds = %.lr.ph
  %indvars.iv.next89 = add nuw nsw i64 %indvars.iv88, 4
  %.not65 = icmp sgt i64 %indvars.iv.next89, %5
  br i1 %.not65, label %.loopexit, label %.lr.ph, !llvm.loop !32

.lr.ph:                                           ; preds = %.preheader, %37
  %indvars.iv88 = phi i64 [ %indvars.iv.next89, %37 ], [ %indvars.iv84, %.preheader ]
  %38 = getelementptr inbounds nuw i8, ptr %0, i64 %indvars.iv88
  %39 = load i8, ptr %38, align 1, !tbaa !7
  %.not66 = icmp eq i8 %39, -1
  br i1 %.not66, label %37, label %.loopexit

.loopexit:                                        ; preds = %7, %26, %.lr.ph, %37, %.preheader
  %.2 = phi i32 [ 0, %.preheader ], [ 1, %.lr.ph ], [ 0, %37 ], [ 1, %26 ], [ 1, %7 ]
  ret i32 %.2
}